target datalayout = "e-m:e-p270:32:32-p271:32:32-p272:64:64-i64:64-i128:128-f80:128-n8:16:32:64-S128"
target triple = "x86_64-unknown-linux-gnu"

%struct.timeval = type { i64, i64 }

@.str.2 = private unnamed_addr constant [30 x i8] c"../qemu/migration/migration.c\00", align 1
@trace_events_enabled_count = external global i32, align 4
@message_with_timestamp = external global i8, align 1
@qemu_loglevel = external global i32, align 4
@__func__.migrate_handle_rp_req_pages = private unnamed_addr constant [28 x i8] c"migrate_handle_rp_req_pages\00", align 1
@.str.132 = private unnamed_addr constant [66 x i8] c"MIG_RP_MSG_REQ_PAGES: Misaligned page request, start:%lx len: %zd\00", align 1
@_TRACE_MIGRATE_HANDLE_RP_REQ_PAGES_DSTATE = external global i16, align 2
@.str.133 = private unnamed_addr constant [67 x i8] c"%d@%zu.%06zu:migrate_handle_rp_req_pages in %s at 0x%zx len 0x%zx\0A\00", align 1
@.str.134 = private unnamed_addr constant [54 x i8] c"migrate_handle_rp_req_pages in %s at 0x%zx len 0x%zx\0A\00", align 1

; Function Attrs: nounwind sspstrong uwtable
define internal zeroext i1 @qemu_loglevel_mask(i32 noundef %mask) #0 {
entry:
  %mask.addr = alloca i32, align 4
  store i32 %mask, ptr %mask.addr, align 4
  %0 = load i32, ptr @qemu_loglevel, align 4
  %1 = load i32, ptr %mask.addr, align 4
  %and = and i32 %0, %1
  %cmp = icmp ne i32 %and, 0
  ret i1 %cmp
}

; Function Attrs: nounwind sspstrong uwtable
define internal void @_nocheck__trace_migrate_handle_rp_req_pages(ptr noundef %rbname, i64 noundef %start, i64 noundef %len) #0 {
entry:
  %rbname.addr = alloca ptr, align 8
  %start.addr = alloca i64, align 8
  %len.addr = alloca i64, align 8
  %_now = alloca %struct.timeval, align 8
  store ptr %rbname, ptr %rbname.addr, align 8
  store i64 %start, ptr %start.addr, align 8
  store i64 %len, ptr %len.addr, align 8
  %0 = load i32, ptr @trace_events_enabled_count, align 4
  %tobool = icmp ne i32 %0, 0
  %lnot = xor i1 %tobool, true
  %lnot1 = xor i1 %lnot, true
  %lnot.ext = zext i1 %lnot1 to i32
  %conv = sext i32 %lnot.ext to i64
  %tobool2 = icmp ne i64 %conv, 0
  br i1 %tobool2, label %land.lhs.true, label %if.end11

land.lhs.true:                                    ; preds = %entry
  %1 = load i16, ptr @_TRACE_MIGRATE_HANDLE_RP_REQ_PAGES_DSTATE, align 2
  %conv3 = zext i16 %1 to i32
  %tobool4 = icmp ne i32 %conv3, 0
  br i1 %tobool4, label %land.lhs.true5, label %if.end11

land.lhs.true5:                                   ; preds = %land.lhs.true
  %call = call zeroext i1 @qemu_loglevel_mask(i32 noundef 32768)
  br i1 %call, label %if.then, label %if.end11

if.then:                                          ; preds = %land.lhs.true5
  %2 = load i8, ptr @message_with_timestamp, align 1
  %tobool7 = trunc i8 %2 to i1
  br i1 %tobool7, label %if.then8, label %if.else

if.then8:                                         ; preds = %if.then
  %call9 = call i32 @gettimeofday(ptr noundef %_now, ptr noundef null) #18
  %call10 = call i32 @qemu_get_thread_id()
  %tv_sec = getelementptr inbounds %struct.timeval, ptr %_now, i32 0, i32 0
  %3 = load i64, ptr %tv_sec, align 8
  %tv_usec = getelementptr inbounds %struct.timeval, ptr %_now, i32 0, i32 1
  %4 = load i64, ptr %tv_usec, align 8
  %5 = load ptr, ptr %rbname.addr, align 8
  %6 = load i64, ptr %start.addr, align 8
  %7 = load i64, ptr %len.addr, align 8
  call void (ptr, ...) @qemu_log(ptr noundef @.str.133, i32 noundef %call10, i64 noundef %3, i64 noundef %4, ptr noundef %5, i64 noundef %6, i64 noundef %7)
  br label %if.end

if.else:                                          ; preds = %if.then
  %8 = load ptr, ptr %rbname.addr, align 8
  %9 = load i64, ptr %start.addr, align 8
  %10 = load i64, ptr %len.addr, align 8
  call void (ptr, ...) @qemu_log(ptr noundef @.str.134, ptr noundef %8, i64 noundef %9, i64 noundef %10)
  br label %if.end

if.end:                                           ; preds = %if.else, %if.then8
  br label %if.end11

if.end11:                                         ; preds = %if.end, %land.lhs.true5, %land.lhs.true, %entry
  ret void
}

; Function Attrs: nounwind sspstrong uwtable
define internal void @trace_migrate_handle_rp_req_pages(ptr noundef %rbname, i64 noundef %start, i64 noundef %len) #0 {
entry:
  %rbname.addr = alloca ptr, align 8
  %start.addr = alloca i64, align 8
  %len.addr = alloca i64, align 8
  store ptr %rbname, ptr %rbname.addr, align 8
  store i64 %start, ptr %start.addr, align 8
  store i64 %len, ptr %len.addr, align 8
  %0 = load ptr, ptr %rbname.addr, align 8
  %1 = load i64, ptr %start.addr, align 8
  %2 = load i64, ptr %len.addr, align 8
  call void @_nocheck__trace_migrate_handle_rp_req_pages(ptr noundef %0, i64 noundef %1, i64 noundef %2)
  ret void
}

; Function Attrs: nounwind sspstrong uwtable
define internal i64 @qemu_real_host_page_size() #0 {
entry:
  %call = call i32 @getpagesize() #19
  %conv = sext i32 %call to i64
  ret i64 %conv
}

; Function Attrs: nounwind sspstrong uwtable
define internal void @migrate_handle_rp_req_pages(ptr noundef %ms, ptr noundef %rbname, i64 noundef %start, i64 noundef %len, ptr noundef %errp) #0 {
entry:
  %ms.addr = alloca ptr, align 8
  %rbname.addr = alloca ptr, align 8
  %start.addr = alloca i64, align 8
  %len.addr = alloca i64, align 8
  %errp.addr = alloca ptr, align 8
  %our_host_ps = alloca i64, align 8
  store ptr %ms, ptr %ms.addr, align 8
  store ptr %rbname, ptr %rbname.addr, align 8
  store i64 %start, ptr %start.addr, align 8
  store i64 %len, ptr %len.addr, align 8
  store ptr %errp, ptr %errp.addr, align 8
  %call = call i64 @qemu_real_host_page_size()
  store i64 %call, ptr %our_host_ps, align 8
  %0 = load ptr, ptr %rbname.addr, align 8
  %1 = load i64, ptr %start.addr, align 8
  %2 = load i64, ptr %len.addr, align 8
  call void @trace_migrate_handle_rp_req_pages(ptr noundef %0, i64 noundef %1, i64 noundef %2)
  %3 = load i64, ptr %start.addr, align 8
  %4 = load i64, ptr %our_host_ps, align 8
  %rem = urem i64 %3, %4
  %cmp = icmp eq i64 %rem, 0
  br i1 %cmp, label %lor.lhs.false, label %if.then

lor.lhs.false:                                    ; preds = %entry
  %5 = load i64, ptr %len.addr, align 8
  %6 = load i64, ptr %our_host_ps, align 8
  %rem1 = urem i64 %5, %6
  %cmp2 = icmp eq i64 %rem1, 0
  br i1 %cmp2, label %if.end, label %if.then

if.then:                                          ; preds = %lor.lhs.false, %entry
  %7 = load ptr, ptr %errp.addr, align 8
  %8 = load i64, ptr %start.addr, align 8
  %9 = load i64, ptr %len.addr, align 8
  call void (ptr, ptr, i32, ptr, ptr, ...) @error_setg_internal(ptr noundef %7, ptr noundef @.str.2, i32 noundef 2092, ptr noundef @__func__.migrate_handle_rp_req_pages, ptr noundef @.str.132, i64 noundef %8, i64 noundef %9)
  br label %return

if.end:                                           ; preds = %lor.lhs.false
  %10 = load ptr, ptr %rbname.addr, align 8
  %11 = load i64, ptr %start.addr, align 8
  %12 = load i64, ptr %len.addr, align 8
  %13 = load ptr, ptr %errp.addr, align 8
  %call3 = call i32 @ram_save_queue_pages(ptr noundef %10, i64 noundef %11, i64 noundef %12, ptr noundef %13)
  br label %return

return:                                           ; preds = %if.end, %if.then
  ret void
}