; Function Attrs: nounwind sspstrong uwtable
define internal fastcc void @migrate_handle_rp_req_pages(ptr noundef %rbname, i64 noundef %start, i64 noundef range(i64 -2147483648, 2147483648) %len, ptr noundef nonnull %errp) unnamed_addr #0 {
entry:
  %_now.i.i = alloca %struct.timeval, align 8
  %call.i = tail call i32 @getpagesize() #25
  %conv.i = sext i32 %call.i to i64
  call void @llvm.lifetime.start.p0(i64 16, ptr nonnull %_now.i.i)
  %0 = load i32, ptr @trace_events_enabled_count, align 4
  %tobool.i.i = icmp ne i32 %0, 0
  %1 = load i16, ptr @_TRACE_MIGRATE_HANDLE_RP_REQ_PAGES_DSTATE, align 2
  %tobool4.i.i = icmp ne i16 %1, 0
  %or.cond.i.i = select i1 %tobool.i.i, i1 %tobool4.i.i, i1 false
  br i1 %or.cond.i.i, label %land.lhs.true5.i.i, label %trace_migrate_handle_rp_req_pages.exit

land.lhs.true5.i.i:                               ; preds = %entry
  %2 = load i32, ptr @qemu_loglevel, align 4
  %and.i.i.i = and i32 %2, 32768
  %cmp.i.not.i.i = icmp eq i32 %and.i.i.i, 0
  br i1 %cmp.i.not.i.i, label %trace_migrate_handle_rp_req_pages.exit, label %if.then.i.i

if.then.i.i:                                      ; preds = %land.lhs.true5.i.i
  %3 = load i8, ptr @message_with_timestamp, align 1
  %tobool7.i.i = trunc i8 %3 to i1
  br i1 %tobool7.i.i, label %if.then8.i.i, label %if.else.i.i

if.then8.i.i:                                     ; preds = %if.then.i.i
  %call9.i.i = call i32 @gettimeofday(ptr noundef nonnull %_now.i.i, ptr noundef null) #19
  %call10.i.i = tail call i32 @qemu_get_thread_id() #19
  %4 = load i64, ptr %_now.i.i, align 8
  %tv_usec.i.i = getelementptr inbounds nuw i8, ptr %_now.i.i, i64 8
  %5 = load i64, ptr %tv_usec.i.i, align 8
  tail call void (ptr, ...) @qemu_log(ptr noundef nonnull @.str.133, i32 noundef %call10.i.i, i64 noundef %4, i64 noundef %5, ptr noundef %rbname, i64 noundef %start, i64 noundef range(i64 -2147483648, 2147483648) %len) #19
  br label %trace_migrate_handle_rp_req_pages.exit

if.else.i.i:                                      ; preds = %if.then.i.i
  tail call void (ptr, ...) @qemu_log(ptr noundef nonnull @.str.134, ptr noundef %rbname, i64 noundef %start, i64 noundef range(i64 -2147483648, 2147483648) %len) #19
  br label %trace_migrate_handle_rp_req_pages.exit

trace_migrate_handle_rp_req_pages.exit:           ; preds = %entry, %land.lhs.true5.i.i, %if.then8.i.i, %if.else.i.i
  call void @llvm.lifetime.end.p0(i64 16, ptr nonnull %_now.i.i)
  %rem = urem i64 %start, %conv.i
  %cmp = icmp eq i64 %rem, 0
  br i1 %cmp, label %lor.lhs.false, label %if.then

lor.lhs.false:                                    ; preds = %trace_migrate_handle_rp_req_pages.exit
  %rem1 = urem i64 %len, %conv.i
  %cmp2 = icmp eq i64 %rem1, 0
  br i1 %cmp2, label %if.end, label %if.then

if.then:                                          ; preds = %lor.lhs.false, %trace_migrate_handle_rp_req_pages.exit
  tail call void (ptr, ptr, i32, ptr, ptr, ...) @error_setg_internal(ptr noundef nonnull %errp, ptr noundef nonnull @.str.2, i32 noundef 2092, ptr noundef nonnull @__func__.migrate_handle_rp_req_pages, ptr noundef nonnull @.str.132, i64 noundef %start, i64 noundef %len) #19
  br label %return

if.end:                                           ; preds = %lor.lhs.false
  %call3 = tail call i32 @ram_save_queue_pages(ptr noundef %rbname, i64 noundef %start, i64 noundef %len, ptr noundef nonnull %errp) #19
  br label %return

return:                                           ; preds = %if.end, %if.then
  ret void
}